target datalayout = "e-m:e-p270:32:32-p271:32:32-p272:64:64-i64:64-i128:128-f80:128-n8:16:32:64-S128"
target triple = "x86_64-pc-linux-gnu"

%struct.Vec_Int_t_ = type { i32, i32, ptr }
%struct.Gia_Man_t_ = type { ptr, ptr, i32, i32, i32, i32, ptr, ptr, i32, i32, i32, ptr, ptr, %struct.Vec_Int_t_, %struct.Vec_Int_t_, i32, i32, i32, %struct.Vec_Int_t_, ptr, ptr, ptr, i32, i32, i32, i32, ptr, ptr, ptr, ptr, ptr, i32, i32, ptr, i32, ptr, ptr, ptr, ptr, ptr, ptr, ptr, ptr, ptr, ptr, ptr, ptr, ptr, ptr, ptr, ptr, ptr, ptr, %struct.Vec_Int_t_, %struct.Vec_Int_t_, ptr, ptr, ptr, ptr, ptr, ptr, ptr, ptr, ptr, ptr, ptr, ptr, ptr, ptr, ptr, ptr, ptr, ptr, ptr, ptr, ptr, i32, float, float, ptr, ptr, i32, ptr, ptr, ptr, ptr, ptr, ptr, ptr, ptr, ptr, ptr, ptr, ptr, ptr, ptr, ptr, i64, i64, ptr, ptr, i32, i32, i32, i32, i32, i32, i32, i32, i32, i32, i32, i32, ptr, ptr, ptr, ptr, ptr, ptr, ptr, ptr, i32, i32, i32, ptr, i32, i32, ptr, ptr, ptr, ptr, ptr, ptr, i32, i32, ptr, %struct.Vec_Int_t_, %struct.Vec_Int_t_, %struct.Vec_Int_t_, ptr, ptr, ptr, i32, i32, i32, i32, ptr, ptr, ptr, ptr, ptr }
%struct.Abc_Frame_t_ = type { ptr, ptr, ptr, ptr, ptr, ptr, ptr, ptr, ptr, ptr, i32, i32, i32, i32, i32, ptr, float, float, i32, i32, ptr, ptr, ptr, double, double, ptr, ptr, ptr, ptr, ptr, ptr, ptr, ptr, ptr, ptr, ptr, ptr, float, ptr, i32, ptr, ptr, ptr, ptr, ptr, i32, i32, i32, i32, i32, i32, ptr, ptr, ptr, ptr, ptr, ptr, i32, i32, ptr, ptr, ptr, ptr, ptr, ptr, ptr, ptr, ptr, ptr, ptr, ptr, ptr, ptr, ptr, ptr, ptr, ptr, ptr, ptr, ptr, ptr, ptr, ptr, ptr, ptr, ptr, ptr, ptr, ptr }

@.str.1 = private unnamed_addr constant [57 x i8] c"ABC framework is not initialized by calling Abc_Start()\0A\00", align 1
@.str.2 = private unnamed_addr constant [50 x i8] c"Current network in ABC framework is not defined.\0A\00", align 1
@.str.13 = private unnamed_addr constant [44 x i8] c"Mapping of MiniAig nodes is not available.\0A\00", align 1

; Function Attrs: inlinehint nounwind uwtable
define internal i32 @Abc_LitNotCond(i32 noundef %0, i32 noundef %1) #2 {
  %3 = alloca i32, align 4
  %4 = alloca i32, align 4
  store i32 %0, ptr %3, align 4, !tbaa !12
  store i32 %1, ptr %4, align 4, !tbaa !12
  %5 = load i32, ptr %3, align 4, !tbaa !12
  %6 = load i32, ptr %4, align 4, !tbaa !12
  %7 = icmp sgt i32 %6, 0
  %8 = zext i1 %7 to i32
  %9 = xor i32 %5, %8
  ret i32 %9
}

; Function Attrs: inlinehint nounwind uwtable
define internal i32 @Abc_LitIsCompl(i32 noundef %0) #2 {
  %2 = alloca i32, align 4
  store i32 %0, ptr %2, align 4, !tbaa !12
  %3 = load i32, ptr %2, align 4, !tbaa !12
  %4 = and i32 %3, 1
  ret i32 %4
}

; Function Attrs: inlinehint nounwind uwtable
define internal i32 @Abc_Lit2Var(i32 noundef %0) #2 {
  %2 = alloca i32, align 4
  store i32 %0, ptr %2, align 4, !tbaa !12
  %3 = load i32, ptr %2, align 4, !tbaa !12
  %4 = ashr i32 %3, 1
  ret i32 %4
}

; Function Attrs: inlinehint nounwind uwtable
define internal i32 @Abc_Lit2LitL(ptr noundef %0, i32 noundef %1) #2 {
  %3 = alloca ptr, align 8
  %4 = alloca i32, align 4
  store ptr %0, ptr %3, align 8, !tbaa !83
  store i32 %1, ptr %4, align 4, !tbaa !12
  %5 = load ptr, ptr %3, align 8, !tbaa !83
  %6 = load i32, ptr %4, align 4, !tbaa !12
  %7 = call i32 @Abc_Lit2Var(i32 noundef %6)
  %8 = sext i32 %7 to i64
  %9 = getelementptr inbounds i32, ptr %5, i64 %8
  %10 = load i32, ptr %9, align 4, !tbaa !12
  %11 = load i32, ptr %4, align 4, !tbaa !12
  %12 = call i32 @Abc_LitIsCompl(i32 noundef %11)
  %13 = call i32 @Abc_LitNotCond(i32 noundef %10, i32 noundef %12)
  ret i32 %13
}

; Function Attrs: inlinehint nounwind uwtable
define internal ptr @Vec_IntArray(ptr noundef %0) #2 {
  %2 = alloca ptr, align 8
  store ptr %0, ptr %2, align 8, !tbaa !8
  %3 = load ptr, ptr %2, align 8, !tbaa !8
  %4 = getelementptr inbounds nuw %struct.Vec_Int_t_, ptr %3, i32 0, i32 2
  %5 = load ptr, ptr %4, align 8, !tbaa !17
  ret ptr %5
}

; Function Attrs: nounwind uwtable
define void @Abc_FrameRemapLits(ptr noundef %0, i32 noundef %1, ptr noundef %2) #0 {
  %4 = alloca ptr, align 8
  %5 = alloca i32, align 4
  %6 = alloca ptr, align 8
  %7 = alloca i32, align 4
  store ptr %0, ptr %4, align 8, !tbaa !83
  store i32 %1, ptr %5, align 4, !tbaa !12
  store ptr %2, ptr %6, align 8, !tbaa !8
  call void @llvm.lifetime.start.p0(i64 4, ptr %7) #13
  store i32 0, ptr %7, align 4, !tbaa !12
  br label %8

8:                                                ; preds = %26, %3
  %9 = load i32, ptr %7, align 4, !tbaa !12
  %10 = load i32, ptr %5, align 4, !tbaa !12
  %11 = icmp slt i32 %9, %10
  br i1 %11, label %13, label %12

12:                                               ; preds = %8
  call void @llvm.lifetime.end.p0(i64 4, ptr %7) #13
  br label %29

13:                                               ; preds = %8
  %14 = load ptr, ptr %6, align 8, !tbaa !8
  %15 = call ptr @Vec_IntArray(ptr noundef %14)
  %16 = load ptr, ptr %4, align 8, !tbaa !83
  %17 = load i32, ptr %7, align 4, !tbaa !12
  %18 = sext i32 %17 to i64
  %19 = getelementptr inbounds i32, ptr %16, i64 %18
  %20 = load i32, ptr %19, align 4, !tbaa !12
  %21 = call i32 @Abc_Lit2LitL(ptr noundef %15, i32 noundef %20)
  %22 = load ptr, ptr %4, align 8, !tbaa !83
  %23 = load i32, ptr %7, align 4, !tbaa !12
  %24 = sext i32 %23 to i64
  %25 = getelementptr inbounds i32, ptr %22, i64 %24
  store i32 %21, ptr %25, align 4, !tbaa !12
  br label %26

26:                                               ; preds = %13
  %27 = load i32, ptr %7, align 4, !tbaa !12
  %28 = add nsw i32 %27, 1
  store i32 %28, ptr %7, align 4, !tbaa !12
  br label %8, !llvm.loop !188

29:                                               ; preds = %12
  ret void
}

; Function Attrs: nounwind uwtable
define void @Abc_FrameSetRetimingData(ptr noundef %0, ptr noundef %1, ptr noundef %2, ptr noundef %3, i32 noundef %4) #0 {
  %6 = alloca ptr, align 8
  %7 = alloca ptr, align 8
  %8 = alloca ptr, align 8
  %9 = alloca ptr, align 8
  %10 = alloca i32, align 4
  %11 = alloca ptr, align 8
  %12 = alloca ptr, align 8
  %13 = alloca ptr, align 8
  %14 = alloca ptr, align 8
  store ptr %0, ptr %6, align 8, !tbaa !58
  store ptr %1, ptr %7, align 8, !tbaa !83
  store ptr %2, ptr %8, align 8, !tbaa !83
  store ptr %3, ptr %9, align 8, !tbaa !83
  store i32 %4, ptr %10, align 4, !tbaa !12
  call void @llvm.lifetime.start.p0(i64 8, ptr %11) #13
  call void @llvm.lifetime.start.p0(i64 8, ptr %12) #13
  %15 = load i32, ptr %10, align 4, !tbaa !12
  %16 = sext i32 %15 to i64
  %17 = call noalias ptr @calloc(i64 noundef %16, i64 noundef 4) #16
  store ptr %17, ptr %12, align 8, !tbaa !83
  call void @llvm.lifetime.start.p0(i64 8, ptr %13) #13
  %18 = load i32, ptr %10, align 4, !tbaa !12
  %19 = sext i32 %18 to i64
  %20 = call noalias ptr @calloc(i64 noundef %19, i64 noundef 4) #16
  store ptr %20, ptr %13, align 8, !tbaa !83
  call void @llvm.lifetime.start.p0(i64 8, ptr %14) #13
  %21 = load i32, ptr %10, align 4, !tbaa !12
  %22 = sext i32 %21 to i64
  %23 = call noalias ptr @calloc(i64 noundef %22, i64 noundef 4) #16
  store ptr %23, ptr %14, align 8, !tbaa !83
  %24 = load ptr, ptr %6, align 8, !tbaa !58
  %25 = icmp eq ptr %24, null
  br i1 %25, label %26, label %28

26:                                               ; preds = %5
  %27 = call i32 (ptr, ...) @printf(ptr noundef @.str.1)
  br label %28

28:                                               ; preds = %26, %5
  %29 = load ptr, ptr %6, align 8, !tbaa !58
  %30 = call ptr @Abc_FrameReadGia(ptr noundef %29)
  store ptr %30, ptr %11, align 8, !tbaa !3
  %31 = load ptr, ptr %11, align 8, !tbaa !3
  %32 = icmp eq ptr %31, null
  br i1 %32, label %33, label %35

33:                                               ; preds = %28
  %34 = call i32 (ptr, ...) @printf(ptr noundef @.str.2)
  br label %51

35:                                               ; preds = %28
  %36 = load ptr, ptr %12, align 8, !tbaa !83
  %37 = load ptr, ptr %7, align 8, !tbaa !83
  %38 = load i32, ptr %10, align 4, !tbaa !12
  %39 = sext i32 %38 to i64
  %40 = mul i64 4, %39
  call void @llvm.memmove.p0.p0.i64(ptr align 4 %36, ptr align 4 %37, i64 %40, i1 false)
  %41 = load ptr, ptr %13, align 8, !tbaa !83
  %42 = load ptr, ptr %8, align 8, !tbaa !83
  %43 = load i32, ptr %10, align 4, !tbaa !12
  %44 = sext i32 %43 to i64
  %45 = mul i64 4, %44
  call void @llvm.memmove.p0.p0.i64(ptr align 4 %41, ptr align 4 %42, i64 %45, i1 false)
  %46 = load ptr, ptr %14, align 8, !tbaa !83
  %47 = load ptr, ptr %9, align 8, !tbaa !83
  %48 = load i32, ptr %10, align 4, !tbaa !12
  %49 = sext i32 %48 to i64
  %50 = mul i64 4, %49
  call void @llvm.memmove.p0.p0.i64(ptr align 4 %46, ptr align 4 %47, i64 %50, i1 false)
  br label %51

51:                                               ; preds = %35, %33
  %52 = load ptr, ptr %6, align 8, !tbaa !58
  %53 = getelementptr inbounds nuw %struct.Abc_Frame_t_, ptr %52, i32 0, i32 82
  %54 = load ptr, ptr %53, align 8, !tbaa !135
  %55 = icmp eq ptr %54, null
  br i1 %55, label %56, label %58

56:                                               ; preds = %51
  %57 = call i32 (ptr, ...) @printf(ptr noundef @.str.13)
  br label %74

58:                                               ; preds = %51
  %59 = load ptr, ptr %12, align 8, !tbaa !83
  %60 = load i32, ptr %10, align 4, !tbaa !12
  %61 = load ptr, ptr %6, align 8, !tbaa !58
  %62 = getelementptr inbounds nuw %struct.Abc_Frame_t_, ptr %61, i32 0, i32 82
  %63 = load ptr, ptr %62, align 8, !tbaa !135
  call void @Abc_FrameRemapLits(ptr noundef %59, i32 noundef %60, ptr noundef %63)
  %64 = load ptr, ptr %13, align 8, !tbaa !83
  %65 = load i32, ptr %10, align 4, !tbaa !12
  %66 = load ptr, ptr %6, align 8, !tbaa !58
  %67 = getelementptr inbounds nuw %struct.Abc_Frame_t_, ptr %66, i32 0, i32 82
  %68 = load ptr, ptr %67, align 8, !tbaa !135
  call void @Abc_FrameRemapLits(ptr noundef %64, i32 noundef %65, ptr noundef %68)
  %69 = load ptr, ptr %14, align 8, !tbaa !83
  %70 = load i32, ptr %10, align 4, !tbaa !12
  %71 = load ptr, ptr %6, align 8, !tbaa !58
  %72 = getelementptr inbounds nuw %struct.Abc_Frame_t_, ptr %71, i32 0, i32 82
  %73 = load ptr, ptr %72, align 8, !tbaa !135
  call void @Abc_FrameRemapLits(ptr noundef %69, i32 noundef %70, ptr noundef %73)
  br label %74

74:                                               ; preds = %58, %56
  %75 = load ptr, ptr %11, align 8, !tbaa !3
  %76 = load ptr, ptr %12, align 8, !tbaa !83
  %77 = load ptr, ptr %13, align 8, !tbaa !83
  %78 = load ptr, ptr %14, align 8, !tbaa !83
  %79 = call ptr @Gia_ManRetimableF(ptr noundef %75, ptr noundef %76, ptr noundef %77, ptr noundef %78)
  %80 = load ptr, ptr %11, align 8, !tbaa !3
  %81 = getelementptr inbounds nuw %struct.Gia_Man_t_, ptr %80, i32 0, i32 140
  store ptr %79, ptr %81, align 8, !tbaa !189
  %82 = load ptr, ptr %11, align 8, !tbaa !3
  %83 = load ptr, ptr %12, align 8, !tbaa !83
  %84 = load ptr, ptr %13, align 8, !tbaa !83
  %85 = load ptr, ptr %14, align 8, !tbaa !83
  %86 = call ptr @Gia_ManRetimableB(ptr noundef %82, ptr noundef %83, ptr noundef %84, ptr noundef %85)
  %87 = load ptr, ptr %11, align 8, !tbaa !3
  %88 = getelementptr inbounds nuw %struct.Gia_Man_t_, ptr %87, i32 0, i32 141
  store ptr %86, ptr %88, align 8, !tbaa !190
  %89 = load ptr, ptr %12, align 8, !tbaa !83
  %90 = icmp ne ptr %89, null
  br i1 %90, label %91, label %93

91:                                               ; preds = %74
  %92 = load ptr, ptr %12, align 8, !tbaa !83
  call void @free(ptr noundef %92) #13
  store ptr null, ptr %12, align 8, !tbaa !83
  br label %94

93:                                               ; preds = %74
  br label %94

94:                                               ; preds = %93, %91
  %95 = load ptr, ptr %13, align 8, !tbaa !83
  %96 = icmp ne ptr %95, null
  br i1 %96, label %97, label %99

97:                                               ; preds = %94
  %98 = load ptr, ptr %13, align 8, !tbaa !83
  call void @free(ptr noundef %98) #13
  store ptr null, ptr %13, align 8, !tbaa !83
  br label %100

99:                                               ; preds = %94
  br label %100

100:                                              ; preds = %99, %97
  %101 = load ptr, ptr %14, align 8, !tbaa !83
  %102 = icmp ne ptr %101, null
  br i1 %102, label %103, label %105

103:                                              ; preds = %100
  %104 = load ptr, ptr %14, align 8, !tbaa !83
  call void @free(ptr noundef %104) #13
  store ptr null, ptr %14, align 8, !tbaa !83
  br label %106

105:                                              ; preds = %100
  br label %106

106:                                              ; preds = %105, %103
  call void @llvm.lifetime.end.p0(i64 8, ptr %14) #13
  call void @llvm.lifetime.end.p0(i64 8, ptr %13) #13
  call void @llvm.lifetime.end.p0(i64 8, ptr %12) #13
  call void @llvm.lifetime.end.p0(i64 8, ptr %11) #13
  ret void
}