; Function Attrs: nounwind uwtable
define void @Abc_FrameSetRetimingData(ptr noundef %0, ptr noundef readonly captures(none) %1, ptr noundef readonly captures(none) %2, ptr noundef readonly captures(none) %3, i32 noundef %4) local_unnamed_addr #2 {
  %6 = sext i32 %4 to i64
  %7 = tail call noalias ptr @calloc(i64 noundef %6, i64 noundef 4) #28
  %8 = tail call noalias ptr @calloc(i64 noundef %6, i64 noundef 4) #28
  %9 = tail call noalias ptr @calloc(i64 noundef %6, i64 noundef 4) #28
  %10 = icmp eq ptr %0, null
  br i1 %10, label %11, label %12

11:                                               ; preds = %5
  %puts = tail call i32 @puts(ptr nonnull dereferenceable(1) @str.20)
  br label %12

12:                                               ; preds = %11, %5
  %13 = tail call ptr @Abc_FrameReadGia(ptr noundef %0) #25
  %14 = icmp eq ptr %13, null
  br i1 %14, label %15, label %16

15:                                               ; preds = %12
  %puts43 = tail call i32 @puts(ptr nonnull dereferenceable(1) @str.21)
  br label %18

16:                                               ; preds = %12
  %17 = shl nsw i64 %6, 2
  tail call void @llvm.memcpy.p0.p0.i64(ptr align 4 %7, ptr align 4 %1, i64 %17, i1 false)
  tail call void @llvm.memcpy.p0.p0.i64(ptr align 4 %8, ptr align 4 %2, i64 %17, i1 false)
  tail call void @llvm.memcpy.p0.p0.i64(ptr align 4 %9, ptr align 4 %3, i64 %17, i1 false)
  br label %18

18:                                               ; preds = %16, %15
  %19 = getelementptr inbounds nuw i8, ptr %0, i64 592
  %20 = load ptr, ptr %19, align 8, !tbaa !118
  %21 = icmp eq ptr %20, null
  br i1 %21, label %22, label %23

22:                                               ; preds = %18
  %puts44 = tail call i32 @puts(ptr nonnull dereferenceable(1) @str.22)
  br label %Abc_FrameRemapLits.exit60

23:                                               ; preds = %18
  %24 = icmp sgt i32 %4, 0
  br i1 %24, label %.lr.ph.i, label %Abc_FrameRemapLits.exit60

.lr.ph.i:                                         ; preds = %23
  %25 = getelementptr i8, ptr %20, i64 8
  %.val.i = load ptr, ptr %25, align 8, !tbaa !11
  %wide.trip.count.i = zext nneg i32 %4 to i64
  br label %26

26:                                               ; preds = %26, %.lr.ph.i
  %indvars.iv.i = phi i64 [ 0, %.lr.ph.i ], [ %indvars.iv.next.i, %26 ]
  %27 = getelementptr inbounds nuw i32, ptr %7, i64 %indvars.iv.i
  %28 = load i32, ptr %27, align 4, !tbaa !10
  %29 = ashr i32 %28, 1
  %30 = sext i32 %29 to i64
  %31 = getelementptr inbounds i32, ptr %.val.i, i64 %30
  %32 = load i32, ptr %31, align 4, !tbaa !10
  %33 = and i32 %28, 1
  %34 = xor i32 %32, %33
  store i32 %34, ptr %27, align 4, !tbaa !10
  %indvars.iv.next.i = add nuw nsw i64 %indvars.iv.i, 1
  %exitcond.not.i = icmp eq i64 %indvars.iv.next.i, %wide.trip.count.i
  br i1 %exitcond.not.i, label %.lr.ph.i47, label %26, !llvm.loop !170

.lr.ph.i47:                                       ; preds = %26, %.lr.ph.i47
  %indvars.iv.i50 = phi i64 [ %indvars.iv.next.i51, %.lr.ph.i47 ], [ 0, %26 ]
  %35 = getelementptr inbounds nuw i32, ptr %8, i64 %indvars.iv.i50
  %36 = load i32, ptr %35, align 4, !tbaa !10
  %37 = ashr i32 %36, 1
  %38 = sext i32 %37 to i64
  %39 = getelementptr inbounds i32, ptr %.val.i, i64 %38
  %40 = load i32, ptr %39, align 4, !tbaa !10
  %41 = and i32 %36, 1
  %42 = xor i32 %40, %41
  store i32 %42, ptr %35, align 4, !tbaa !10
  %indvars.iv.next.i51 = add nuw nsw i64 %indvars.iv.i50, 1
  %exitcond.not.i52 = icmp eq i64 %indvars.iv.next.i51, %wide.trip.count.i
  br i1 %exitcond.not.i52, label %.lr.ph.i54, label %.lr.ph.i47, !llvm.loop !170

.lr.ph.i54:                                       ; preds = %.lr.ph.i47, %.lr.ph.i54
  %indvars.iv.i57 = phi i64 [ %indvars.iv.next.i58, %.lr.ph.i54 ], [ 0, %.lr.ph.i47 ]
  %43 = getelementptr inbounds nuw i32, ptr %9, i64 %indvars.iv.i57
  %44 = load i32, ptr %43, align 4, !tbaa !10
  %45 = ashr i32 %44, 1
  %46 = sext i32 %45 to i64
  %47 = getelementptr inbounds i32, ptr %.val.i, i64 %46
  %48 = load i32, ptr %47, align 4, !tbaa !10
  %49 = and i32 %44, 1
  %50 = xor i32 %48, %49
  store i32 %50, ptr %43, align 4, !tbaa !10
  %indvars.iv.next.i58 = add nuw nsw i64 %indvars.iv.i57, 1
  %exitcond.not.i59 = icmp eq i64 %indvars.iv.next.i58, %wide.trip.count.i
  br i1 %exitcond.not.i59, label %Abc_FrameRemapLits.exit60, label %.lr.ph.i54, !llvm.loop !170

Abc_FrameRemapLits.exit60:                        ; preds = %.lr.ph.i54, %23, %22
  %51 = tail call ptr @Gia_ManRetimableF(ptr noundef %13, ptr noundef %7, ptr noundef %8, ptr noundef %9)
  %52 = getelementptr inbounds nuw i8, ptr %13, i64 1048
  store ptr %51, ptr %52, align 8, !tbaa !171
  %53 = tail call ptr @Gia_ManRetimableB(ptr noundef %13, ptr noundef %7, ptr noundef %8, ptr noundef %9)
  %54 = getelementptr inbounds nuw i8, ptr %13, i64 1056
  store ptr %53, ptr %54, align 8, !tbaa !172
  %.not = icmp eq ptr %7, null
  br i1 %.not, label %56, label %55

55:                                               ; preds = %Abc_FrameRemapLits.exit60
  tail call void @free(ptr noundef nonnull %7) #25
  br label %56

56:                                               ; preds = %Abc_FrameRemapLits.exit60, %55
  %.not45 = icmp eq ptr %8, null
  br i1 %.not45, label %58, label %57

57:                                               ; preds = %56
  tail call void @free(ptr noundef nonnull %8) #25
  br label %58

58:                                               ; preds = %56, %57
  %.not46 = icmp eq ptr %9, null
  br i1 %.not46, label %60, label %59

59:                                               ; preds = %58
  tail call void @free(ptr noundef nonnull %9) #25
  br label %60

60:                                               ; preds = %58, %59
  ret void
}